target datalayout = "e-m:e-p270:32:32-p271:32:32-p272:64:64-i64:64-i128:128-f80:128-n8:16:32:64-S128"
target triple = "x86_64-pc-linux-gnu"

; Function Attrs: nounwind uwtable
define internal i32 @get_cert_chain(ptr noundef %0, ptr noundef %1, ptr noundef %2, ptr noundef %3) #0 {
  %5 = alloca ptr, align 8
  %6 = alloca ptr, align 8
  %7 = alloca ptr, align 8
  %8 = alloca ptr, align 8
  %9 = alloca ptr, align 8
  %10 = alloca ptr, align 8
  %11 = alloca i32, align 4
  store ptr %0, ptr %5, align 8, !tbaa !27
  store ptr %1, ptr %6, align 8, !tbaa !36
  store ptr %2, ptr %7, align 8, !tbaa !29
  store ptr %3, ptr %8, align 8, !tbaa !58
  call void @llvm.lifetime.start.p0(i64 8, ptr %9) #6
  store ptr null, ptr %9, align 8, !tbaa !60
  call void @llvm.lifetime.start.p0(i64 8, ptr %10) #6
  store ptr null, ptr %10, align 8, !tbaa !29
  call void @llvm.lifetime.start.p0(i64 4, ptr %11) #6
  store i32 0, ptr %11, align 4, !tbaa !4
  %12 = call ptr @app_get0_libctx()
  %13 = call ptr @app_get0_propq()
  %14 = call ptr @X509_STORE_CTX_new_ex(ptr noundef %12, ptr noundef %13)
  store ptr %14, ptr %9, align 8, !tbaa !60
  %15 = load ptr, ptr %9, align 8, !tbaa !60
  %16 = icmp eq ptr %15, null
  br i1 %16, label %17, label %18

17:                                               ; preds = %4
  store i32 1, ptr %11, align 4, !tbaa !4
  br label %40

18:                                               ; preds = %4
  %19 = load ptr, ptr %9, align 8, !tbaa !60
  %20 = load ptr, ptr %6, align 8, !tbaa !36
  %21 = load ptr, ptr %5, align 8, !tbaa !27
  %22 = load ptr, ptr %7, align 8, !tbaa !29
  %23 = call i32 @X509_STORE_CTX_init(ptr noundef %19, ptr noundef %20, ptr noundef %21, ptr noundef %22)
  %24 = icmp ne i32 %23, 0
  br i1 %24, label %26, label %25

25:                                               ; preds = %18
  store i32 1, ptr %11, align 4, !tbaa !4
  br label %40

26:                                               ; preds = %18
  %27 = load ptr, ptr %9, align 8, !tbaa !60
  %28 = call i32 @X509_verify_cert(ptr noundef %27)
  %29 = icmp sgt i32 %28, 0
  br i1 %29, label %30, label %33

30:                                               ; preds = %26
  %31 = load ptr, ptr %9, align 8, !tbaa !60
  %32 = call ptr @X509_STORE_CTX_get1_chain(ptr noundef %31)
  store ptr %32, ptr %10, align 8, !tbaa !29
  br label %39

33:                                               ; preds = %26
  %34 = load ptr, ptr %9, align 8, !tbaa !60
  %35 = call i32 @X509_STORE_CTX_get_error(ptr noundef %34)
  store i32 %35, ptr %11, align 4, !tbaa !4
  %36 = icmp eq i32 %35, 0
  br i1 %36, label %37, label %38

37:                                               ; preds = %33
  store i32 1, ptr %11, align 4, !tbaa !4
  br label %38

38:                                               ; preds = %37, %33
  br label %39

39:                                               ; preds = %38, %30
  br label %40

40:                                               ; preds = %39, %25, %17
  %41 = load ptr, ptr %9, align 8, !tbaa !60
  call void @X509_STORE_CTX_free(ptr noundef %41)
  %42 = load ptr, ptr %10, align 8, !tbaa !29
  %43 = load ptr, ptr %8, align 8, !tbaa !58
  store ptr %42, ptr %43, align 8, !tbaa !29
  %44 = load i32, ptr %11, align 4, !tbaa !4
  call void @llvm.lifetime.end.p0(i64 4, ptr %11) #6
  call void @llvm.lifetime.end.p0(i64 8, ptr %10) #6
  call void @llvm.lifetime.end.p0(i64 8, ptr %9) #6
  ret i32 %44
}