; Function Attrs: nounwind uwtable
define internal fastcc i32 @get_cert_chain(ptr noundef nonnull %0, ptr noundef nonnull %1, ptr noundef %2, ptr noundef nonnull writeonly captures(none) initializes((0, 8)) %3) unnamed_addr #0 {
  %5 = tail call ptr @app_get0_libctx() #6
  %6 = tail call ptr @app_get0_propq() #6
  %7 = tail call ptr @X509_STORE_CTX_new_ex(ptr noundef %5, ptr noundef %6) #6
  %8 = icmp eq ptr %7, null
  br i1 %8, label %18, label %9

9:                                                ; preds = %4
  %10 = tail call i32 @X509_STORE_CTX_init(ptr noundef nonnull %7, ptr noundef nonnull %1, ptr noundef nonnull %0, ptr noundef %2) #6
  %.not = icmp eq i32 %10, 0
  br i1 %.not, label %18, label %11

11:                                               ; preds = %9
  %12 = tail call i32 @X509_verify_cert(ptr noundef nonnull %7) #6
  %13 = icmp sgt i32 %12, 0
  br i1 %13, label %14, label %16

14:                                               ; preds = %11
  %15 = tail call ptr @X509_STORE_CTX_get1_chain(ptr noundef nonnull %7) #6
  br label %18

16:                                               ; preds = %11
  %17 = tail call i32 @X509_STORE_CTX_get_error(ptr noundef nonnull %7) #6
  %spec.store.select = tail call i32 @llvm.umax.i32(i32 %17, i32 1)
  br label %18

18:                                               ; preds = %9, %4, %14, %16
  %.011 = phi ptr [ %15, %14 ], [ null, %16 ], [ null, %4 ], [ null, %9 ]
  %.0 = phi i32 [ 0, %14 ], [ %spec.store.select, %16 ], [ 1, %4 ], [ 1, %9 ]
  tail call void @X509_STORE_CTX_free(ptr noundef %7) #6
  store ptr %.011, ptr %3, align 8, !tbaa !17
  ret i32 %.0
}